; ModuleID = '22/59.c'
source_filename = "22/59.c"
target datalayout = "e-m:e-p270:32:32-p271:32:32-p272:64:64-i64:64-f80:128-n8:16:32:64-S128"
target triple = "x86_64-pc-linux-gnu"

@.str = private unnamed_addr constant [3 x i8] c"%d\00", align 1
@.str.1 = private unnamed_addr constant [4 x i8] c",%d\00", align 1
@.str.2 = private unnamed_addr constant [4 x i8] c"%d\0A\00", align 1
@.str.3 = private unnamed_addr constant [4 x i8] c"No\0A\00", align 1

; Function Attrs: noinline nounwind uwtable
define dso_local void @main() #0 {
  %1 = alloca i32, align 4
  %2 = alloca i32, align 4
  %3 = alloca [300 x i32], align 16
  %4 = alloca i32, align 4
  store i32 0, i32* %2, align 4
  br label %5

5:                                                ; preds = %12, %0
  %6 = load i32, i32* %2, align 4
  %7 = icmp slt i32 %6, 300
  br i1 %7, label %8, label %15

8:                                                ; preds = %5
  %9 = load i32, i32* %2, align 4
  %10 = sext i32 %9 to i64
  %11 = getelementptr inbounds [300 x i32], [300 x i32]* %3, i64 0, i64 %10
  store i32 -1, i32* %11, align 4
  br label %12

12:                                               ; preds = %8
  %13 = load i32, i32* %2, align 4
  %14 = add nsw i32 %13, 1
  store i32 %14, i32* %2, align 4
  br label %5

15:                                               ; preds = %5
  %16 = getelementptr inbounds [300 x i32], [300 x i32]* %3, i64 0, i64 0
  %17 = call i32 (i8*, ...) @__isoc99_scanf(i8* getelementptr inbounds ([3 x i8], [3 x i8]* @.str, i64 0, i64 0), i32* %16)
  store i32 1, i32* %2, align 4
  br label %18

18:                                               ; preds = %29, %15
  %19 = load i32, i32* %2, align 4
  %20 = sext i32 %19 to i64
  %21 = getelementptr inbounds [300 x i32], [300 x i32]* %3, i64 0, i64 %20
  %22 = call i32 (i8*, ...) @__isoc99_scanf(i8* getelementptr inbounds ([4 x i8], [4 x i8]* @.str.1, i64 0, i64 0), i32* %21)
  %23 = icmp ne i32 %22, -1
  br i1 %23, label %24, label %27

24:                                               ; preds = %18
  %25 = load i32, i32* %2, align 4
  %26 = icmp slt i32 %25, 300
  br label %27

27:                                               ; preds = %24, %18
  %28 = phi i1 [ false, %18 ], [ %26, %24 ]
  br i1 %28, label %29, label %32

29:                                               ; preds = %27
  %30 = load i32, i32* %2, align 4
  %31 = add nsw i32 %30, 1
  store i32 %31, i32* %2, align 4
  br label %18

32:                                               ; preds = %27
  store i32 0, i32* %2, align 4
  br label %33

33:                                               ; preds = %40, %32
  %34 = load i32, i32* %2, align 4
  %35 = sext i32 %34 to i64
  %36 = getelementptr inbounds [300 x i32], [300 x i32]* %3, i64 0, i64 %35
  %37 = load i32, i32* %36, align 4
  %38 = icmp ne i32 %37, -1
  br i1 %38, label %39, label %43

39:                                               ; preds = %33
  br label %40

40:                                               ; preds = %39
  %41 = load i32, i32* %2, align 4
  %42 = add nsw i32 %41, 1
  store i32 %42, i32* %2, align 4
  br label %33

43:                                               ; preds = %33
  %44 = load i32, i32* %2, align 4
  store i32 %44, i32* %1, align 4
  %45 = getelementptr inbounds [300 x i32], [300 x i32]* %3, i64 0, i64 0
  %46 = load i32, i32* %1, align 4
  %47 = call i32 @choose(i32* %45, i32 %46)
  store i32 %47, i32* %4, align 4
  store i32 0, i32* %2, align 4
  br label %48

48:                                               ; preds = %64, %43
  %49 = load i32, i32* %2, align 4
  %50 = load i32, i32* %1, align 4
  %51 = icmp slt i32 %49, %50
  br i1 %51, label %52, label %67

52:                                               ; preds = %48
  %53 = load i32, i32* %2, align 4
  %54 = sext i32 %53 to i64
  %55 = getelementptr inbounds [300 x i32], [300 x i32]* %3, i64 0, i64 %54
  %56 = load i32, i32* %55, align 4
  %57 = load i32, i32* %4, align 4
  %58 = icmp eq i32 %56, %57
  br i1 %58, label %59, label %63

59:                                               ; preds = %52
  %60 = load i32, i32* %2, align 4
  %61 = sext i32 %60 to i64
  %62 = getelementptr inbounds [300 x i32], [300 x i32]* %3, i64 0, i64 %61
  store i32 -1, i32* %62, align 4
  br label %63

63:                                               ; preds = %59, %52
  br label %64

64:                                               ; preds = %63
  %65 = load i32, i32* %2, align 4
  %66 = add nsw i32 %65, 1
  store i32 %66, i32* %2, align 4
  br label %48

67:                                               ; preds = %48
  %68 = getelementptr inbounds [300 x i32], [300 x i32]* %3, i64 0, i64 0
  %69 = load i32, i32* %1, align 4
  %70 = call i32 @choose(i32* %68, i32 %69)
  store i32 %70, i32* %4, align 4
  %71 = load i32, i32* %4, align 4
  %72 = icmp ne i32 %71, -1
  br i1 %72, label %73, label %76

73:                                               ; preds = %67
  %74 = load i32, i32* %4, align 4
  %75 = call i32 (i8*, ...) @printf(i8* getelementptr inbounds ([4 x i8], [4 x i8]* @.str.2, i64 0, i64 0), i32 %74)
  br label %78

76:                                               ; preds = %67
  %77 = call i32 (i8*, ...) @printf(i8* getelementptr inbounds ([4 x i8], [4 x i8]* @.str.3, i64 0, i64 0))
  br label %78

78:                                               ; preds = %76, %73
  ret void
}

declare dso_local i32 @__isoc99_scanf(i8*, ...) #1

; Function Attrs: noinline nounwind uwtable
define dso_local i32 @choose(i32* %0, i32 %1) #0 {
  %3 = alloca i32*, align 8
  %4 = alloca i32, align 4
  %5 = alloca i32, align 4
  %6 = alloca i32, align 4
  store i32* %0, i32** %3, align 8
  store i32 %1, i32* %4, align 4
  store i32 0, i32* %5, align 4
  store i32 -1, i32* %6, align 4
  br label %7

7:                                                ; preds = %26, %2
  %8 = load i32, i32* %5, align 4
  %9 = load i32, i32* %4, align 4
  %10 = icmp slt i32 %8, %9
  br i1 %10, label %11, label %29

11:                                               ; preds = %7
  %12 = load i32*, i32** %3, align 8
  %13 = load i32, i32* %5, align 4
  %14 = sext i32 %13 to i64
  %15 = getelementptr inbounds i32, i32* %12, i64 %14
  %16 = load i32, i32* %15, align 4
  %17 = load i32, i32* %6, align 4
  %18 = icmp sgt i32 %16, %17
  br i1 %18, label %19, label %25

19:                                               ; preds = %11
  %20 = load i32*, i32** %3, align 8
  %21 = load i32, i32* %5, align 4
  %22 = sext i32 %21 to i64
  %23 = getelementptr inbounds i32, i32* %20, i64 %22
  %24 = load i32, i32* %23, align 4
  store i32 %24, i32* %6, align 4
  br label %25

25:                                               ; preds = %19, %11
  br label %26

26:                                               ; preds = %25
  %27 = load i32, i32* %5, align 4
  %28 = add nsw i32 %27, 1
  store i32 %28, i32* %5, align 4
  br label %7

29:                                               ; preds = %7
  %30 = load i32, i32* %6, align 4
  ret i32 %30
}

declare dso_local i32 @printf(i8*, ...) #1


!llvm.module.flags = !{!0}
!llvm.ident = !{!1}

!0 = !{i32 1, !"wchar_size", i32 4}
!1 = !{!"clang version 10.0.0-4ubuntu1 "}
